; Function Attrs: alwaysinline norecurse nounwind ssp uwtable
define internal void @"_ZN6open3d4core15ParallelForCPU_IZZZNS_1t8geometry6kernel12trianglemesh25ComputeTriangleNormalsCPUERKNS0_6TensorES8_RS6_ENK3$_0clEvENKUlvE0_clEvEUllE_EEvRKNS0_6DeviceElRKT_.omp_outlined"(ptr noalias noundef readonly captures(none) %0, ptr noalias readnone captures(none) %1, ptr noundef nonnull readonly align 8 captures(none) dereferenceable(8) %2, ptr noundef nonnull readonly align 8 captures(none) dereferenceable(24) %3) #25 personality ptr @__gxx_personality_v0 {
  %5 = alloca i64, align 8
  %6 = alloca i64, align 8
  %7 = alloca i64, align 8
  %8 = alloca i32, align 4
  %9 = load i64, ptr %2, align 8, !tbaa !41
  %10 = icmp sgt i64 %9, 0
  br i1 %10, label %11, label %67

11:                                               ; preds = %4
  %12 = add nsw i64 %9, -1
  call void @llvm.lifetime.start.p0(i64 8, ptr nonnull %5) #26
  store i64 0, ptr %5, align 8, !tbaa !41
  call void @llvm.lifetime.start.p0(i64 8, ptr nonnull %6) #26
  store i64 %12, ptr %6, align 8, !tbaa !41
  call void @llvm.lifetime.start.p0(i64 8, ptr nonnull %7) #26
  store i64 1, ptr %7, align 8, !tbaa !41
  call void @llvm.lifetime.start.p0(i64 4, ptr nonnull %8) #26
  store i32 0, ptr %8, align 4, !tbaa !28
  %13 = load i32, ptr %0, align 4, !tbaa !28
  call void @__kmpc_for_static_init_8(ptr nonnull @1, i32 %13, i32 34, ptr nonnull %8, ptr nonnull %5, ptr nonnull %6, ptr nonnull %7, i64 1, i64 1)
  %14 = load i64, ptr %6, align 8, !tbaa !41
  %15 = call i64 @llvm.smin.i64(i64 %14, i64 %12)
  store i64 %15, ptr %6, align 8, !tbaa !41
  %16 = load i64, ptr %5, align 8, !tbaa !41
  %.not13 = icmp sgt i64 %16, %15
  br i1 %.not13, label %._crit_edge, label %.lr.ph

.lr.ph:                                           ; preds = %11
  %17 = load ptr, ptr %3, align 8, !tbaa !667
  %18 = getelementptr inbounds nuw i8, ptr %3, i64 8
  %19 = load ptr, ptr %18, align 8, !tbaa !669
  %20 = getelementptr inbounds nuw i8, ptr %3, i64 16
  %21 = load ptr, ptr %20, align 8, !tbaa !670
  br label %22

22:                                               ; preds = %.lr.ph, %22
  %.014 = phi i64 [ %16, %.lr.ph ], [ %66, %22 ]
  %23 = mul nsw i64 %.014, 3
  %24 = getelementptr inbounds i64, ptr %17, i64 %23
  %25 = load i64, ptr %24, align 8, !tbaa !41
  %26 = getelementptr i8, ptr %24, i64 8
  %27 = load i64, ptr %26, align 8, !tbaa !41
  %28 = getelementptr i8, ptr %24, i64 16
  %29 = load i64, ptr %28, align 8, !tbaa !41
  %.idx.i = mul nsw i64 %27, 24
  %30 = getelementptr inbounds i8, ptr %19, i64 %.idx.i
  %31 = load double, ptr %30, align 8, !tbaa !661
  %.idx27.i = mul i64 %25, 24
  %32 = getelementptr i8, ptr %19, i64 %.idx27.i
  %33 = load double, ptr %32, align 8, !tbaa !661
  %34 = fsub double %31, %33
  %35 = getelementptr i8, ptr %30, i64 8
  %36 = load double, ptr %35, align 8, !tbaa !661
  %37 = getelementptr i8, ptr %32, i64 8
  %38 = load double, ptr %37, align 8, !tbaa !661
  %39 = fsub double %36, %38
  %40 = getelementptr i8, ptr %30, i64 16
  %41 = load double, ptr %40, align 8, !tbaa !661
  %42 = getelementptr i8, ptr %32, i64 16
  %43 = load double, ptr %42, align 8, !tbaa !661
  %44 = fsub double %41, %43
  %.idx26.i = mul nsw i64 %29, 24
  %45 = getelementptr inbounds i8, ptr %19, i64 %.idx26.i
  %46 = load double, ptr %45, align 8, !tbaa !661
  %47 = fsub double %46, %33
  %48 = getelementptr i8, ptr %45, i64 8
  %49 = load double, ptr %48, align 8, !tbaa !661
  %50 = fsub double %49, %38
  %51 = getelementptr i8, ptr %45, i64 16
  %52 = load double, ptr %51, align 8, !tbaa !661
  %53 = fsub double %52, %43
  %54 = getelementptr inbounds double, ptr %21, i64 %23
  %55 = fneg double %50
  %56 = fmul double %44, %55
  %57 = call double @llvm.fmuladd.f64(double %39, double %53, double %56)
  store double %57, ptr %54, align 8, !tbaa !661
  %58 = fneg double %53
  %59 = fmul double %34, %58
  %60 = call double @llvm.fmuladd.f64(double %44, double %47, double %59)
  %61 = getelementptr inbounds nuw i8, ptr %54, i64 8
  store double %60, ptr %61, align 8, !tbaa !661
  %62 = fneg double %47
  %63 = fmul double %39, %62
  %64 = call double @llvm.fmuladd.f64(double %34, double %50, double %63)
  %65 = getelementptr inbounds nuw i8, ptr %54, i64 16
  store double %64, ptr %65, align 8, !tbaa !661
  %66 = add i64 %.014, 1
  %exitcond.not = icmp eq i64 %.014, %15
  br i1 %exitcond.not, label %._crit_edge, label %22

._crit_edge:                                      ; preds = %22, %11
  call void @__kmpc_for_static_fini(ptr nonnull @1, i32 %13)
  call void @llvm.lifetime.end.p0(i64 4, ptr nonnull %8) #26
  call void @llvm.lifetime.end.p0(i64 8, ptr nonnull %7) #26
  call void @llvm.lifetime.end.p0(i64 8, ptr nonnull %6) #26
  call void @llvm.lifetime.end.p0(i64 8, ptr nonnull %5) #26
  br label %67

67:                                               ; preds = %._crit_edge, %4
  ret void
}